target datalayout = "e-m:e-p270:32:32-p271:32:32-p272:64:64-i64:64-i128:128-f80:128-n8:16:32:64-S128"
target triple = "x86_64-pc-linux-gnu"

%struct.nstime_t = type { i64, i32 }
%struct.tcp_analysis = type { %struct._tcp_flow_t, %struct._tcp_flow_t, ptr, ptr, ptr, ptr, %struct.nstime_t, %struct.nstime_t, %struct.nstime_t, %struct.nstime_t, i32, i16, i8, ptr, i8, ptr, i32, i32, i32 }
%struct._tcp_flow_t = type { i8, i32, i32, i32, i16, i16, i16, i32, i32, i32, i8, i32, i32, ptr, i16, i32, i32, ptr, ptr, ptr, ptr }
%struct._wmem_tree_key_t = type { i32, ptr }

; Function Attrs: nounwind uwtable
define internal void @tcp_analyze_get_acked_struct(i32 noundef %0, i32 noundef %1, i32 noundef %2, i32 noundef %3, ptr noundef %4) #0 {
  %6 = alloca i32, align 4
  %7 = alloca i32, align 4
  %8 = alloca i32, align 4
  %9 = alloca i32, align 4
  %10 = alloca ptr, align 8
  %11 = alloca [4 x %struct._wmem_tree_key_t], align 16
  store i32 %0, ptr %6, align 4
  store i32 %1, ptr %7, align 4
  store i32 %2, ptr %8, align 4
  store i32 %3, ptr %9, align 4
  store ptr %4, ptr %10, align 8
  %12 = getelementptr [4 x %struct._wmem_tree_key_t], ptr %11, i64 0, i64 0
  %13 = getelementptr inbounds %struct._wmem_tree_key_t, ptr %12, i32 0, i32 0
  store i32 1, ptr %13, align 16
  %14 = getelementptr [4 x %struct._wmem_tree_key_t], ptr %11, i64 0, i64 0
  %15 = getelementptr inbounds %struct._wmem_tree_key_t, ptr %14, i32 0, i32 1
  store ptr %6, ptr %15, align 8
  %16 = getelementptr [4 x %struct._wmem_tree_key_t], ptr %11, i64 0, i64 1
  %17 = getelementptr inbounds %struct._wmem_tree_key_t, ptr %16, i32 0, i32 0
  store i32 1, ptr %17, align 16
  %18 = getelementptr [4 x %struct._wmem_tree_key_t], ptr %11, i64 0, i64 1
  %19 = getelementptr inbounds %struct._wmem_tree_key_t, ptr %18, i32 0, i32 1
  store ptr %7, ptr %19, align 8
  %20 = getelementptr [4 x %struct._wmem_tree_key_t], ptr %11, i64 0, i64 2
  %21 = getelementptr inbounds %struct._wmem_tree_key_t, ptr %20, i32 0, i32 0
  store i32 1, ptr %21, align 16
  %22 = getelementptr [4 x %struct._wmem_tree_key_t], ptr %11, i64 0, i64 2
  %23 = getelementptr inbounds %struct._wmem_tree_key_t, ptr %22, i32 0, i32 1
  store ptr %8, ptr %23, align 8
  %24 = getelementptr [4 x %struct._wmem_tree_key_t], ptr %11, i64 0, i64 3
  %25 = getelementptr inbounds %struct._wmem_tree_key_t, ptr %24, i32 0, i32 0
  store i32 0, ptr %25, align 16
  %26 = getelementptr [4 x %struct._wmem_tree_key_t], ptr %11, i64 0, i64 3
  %27 = getelementptr inbounds %struct._wmem_tree_key_t, ptr %26, i32 0, i32 1
  store ptr null, ptr %27, align 8
  %28 = load ptr, ptr %10, align 8
  %29 = icmp ne ptr %28, null
  br i1 %29, label %31, label %30

30:                                               ; preds = %5
  br label %58

31:                                               ; preds = %5
  %32 = load ptr, ptr %10, align 8
  %33 = getelementptr inbounds %struct.tcp_analysis, ptr %32, i32 0, i32 5
  %34 = load ptr, ptr %33, align 8
  %35 = getelementptr inbounds [4 x %struct._wmem_tree_key_t], ptr %11, i64 0, i64 0
  %36 = call ptr @wmem_tree_lookup32_array(ptr noundef %34, ptr noundef %35)
  %37 = load ptr, ptr %10, align 8
  %38 = getelementptr inbounds %struct.tcp_analysis, ptr %37, i32 0, i32 4
  store ptr %36, ptr %38, align 8
  %39 = load ptr, ptr %10, align 8
  %40 = getelementptr inbounds %struct.tcp_analysis, ptr %39, i32 0, i32 4
  %41 = load ptr, ptr %40, align 8
  %42 = icmp ne ptr %41, null
  br i1 %42, label %58, label %43

43:                                               ; preds = %31
  %44 = load i32, ptr %9, align 4
  %45 = icmp ne i32 %44, 0
  br i1 %45, label %46, label %58

46:                                               ; preds = %43
  %47 = call ptr @wmem_file_scope()
  %48 = call noalias ptr @wmem_alloc0(ptr noundef %47, i64 noundef 80)
  %49 = load ptr, ptr %10, align 8
  %50 = getelementptr inbounds %struct.tcp_analysis, ptr %49, i32 0, i32 4
  store ptr %48, ptr %50, align 8
  %51 = load ptr, ptr %10, align 8
  %52 = getelementptr inbounds %struct.tcp_analysis, ptr %51, i32 0, i32 5
  %53 = load ptr, ptr %52, align 8
  %54 = getelementptr inbounds [4 x %struct._wmem_tree_key_t], ptr %11, i64 0, i64 0
  %55 = load ptr, ptr %10, align 8
  %56 = getelementptr inbounds %struct.tcp_analysis, ptr %55, i32 0, i32 4
  %57 = load ptr, ptr %56, align 8
  call void @wmem_tree_insert32_array(ptr noundef %53, ptr noundef %54, ptr noundef %57)
  br label %58

58:                                               ; preds = %46, %43, %31, %30
  ret void
}