; Function Attrs: nounwind uwtable
define internal fastcc void @tcp_analyze_get_acked_struct(i32 noundef %0, i32 noundef %1, i32 noundef %2, i32 noundef range(i32 0, 2) %3, ptr noundef %4) unnamed_addr #0 {
  %6 = alloca i32, align 4
  %7 = alloca i32, align 4
  %8 = alloca i32, align 4
  %9 = alloca [4 x %struct._wmem_tree_key_t], align 16
  store i32 %0, ptr %6, align 4
  store i32 %1, ptr %7, align 4
  store i32 %2, ptr %8, align 4
  store i32 1, ptr %9, align 16
  %10 = getelementptr inbounds nuw i8, ptr %9, i64 8
  store ptr %6, ptr %10, align 8
  %11 = getelementptr inbounds nuw i8, ptr %9, i64 16
  store i32 1, ptr %11, align 16
  %12 = getelementptr inbounds nuw i8, ptr %9, i64 24
  store ptr %7, ptr %12, align 8
  %13 = getelementptr inbounds nuw i8, ptr %9, i64 32
  store i32 1, ptr %13, align 16
  %14 = getelementptr inbounds nuw i8, ptr %9, i64 40
  store ptr %8, ptr %14, align 8
  %15 = getelementptr inbounds nuw i8, ptr %9, i64 48
  store i32 0, ptr %15, align 16
  %16 = getelementptr inbounds nuw i8, ptr %9, i64 56
  store ptr null, ptr %16, align 8
  %.not = icmp eq ptr %4, null
  br i1 %.not, label %28, label %17

17:                                               ; preds = %5
  %18 = getelementptr inbounds nuw i8, ptr %4, i64 232
  %19 = load ptr, ptr %18, align 8
  %20 = call ptr @wmem_tree_lookup32_array(ptr noundef %19, ptr noundef nonnull %9) #20
  %21 = getelementptr inbounds nuw i8, ptr %4, i64 224
  store ptr %20, ptr %21, align 8
  %22 = icmp eq ptr %20, null
  %23 = icmp ne i32 %3, 0
  %or.cond = and i1 %23, %22
  br i1 %or.cond, label %24, label %28

24:                                               ; preds = %17
  %25 = call ptr @wmem_file_scope() #20
  %26 = call noalias ptr @wmem_alloc0(ptr noundef %25, i64 noundef 80) #20
  store ptr %26, ptr %21, align 8
  %27 = load ptr, ptr %18, align 8
  call void @wmem_tree_insert32_array(ptr noundef %27, ptr noundef nonnull %9, ptr noundef %26) #20
  br label %28

28:                                               ; preds = %5, %24, %17
  ret void
}